CCS PCM C Compiler, Version 5.008, 5967               24-Jun-22 15:21

               Filename:   C:\Users\BOLA SHANKAR\OneDrive\Desktop\Embedded Training\LED\10 LED Blink.lst

               ROM used:   112 words (1%)
                           Largest free fragment is 2048
               RAM used:   6 (2%) at main() level
                           7 (2%) worst case
               Stack used: 1 locations
               Stack size: 8

*
0000:  MOVLW  00
0001:  MOVWF  0A
0002:  GOTO   018
0003:  NOP
.................... #include <10 LED Blink.h> 
.................... #include <16F877A.h> 
.................... //////// Standard Header file for the PIC16F877A device //////////////// 
.................... #device PIC16F877A 
....................  
.................... #list 
....................  
.................... #device ADC=16 
....................  
.................... #FUSES NOWDT                 	//No Watch Dog Timer 
.................... #FUSES NOBROWNOUT            	//No brownout reset 
.................... #FUSES NOLVP                 	//No low voltage prgming, B3(PIC16) or B5(PIC18) used for I/O 
....................  
.................... #use delay(crystal=20MHz) 
0004:  MOVLW  22
0005:  MOVWF  04
0006:  BCF    03.7
0007:  MOVF   00,W
0008:  BTFSC  03.2
0009:  GOTO   017
000A:  MOVLW  06
000B:  MOVWF  78
000C:  CLRF   77
000D:  DECFSZ 77,F
000E:  GOTO   00D
000F:  DECFSZ 78,F
0010:  GOTO   00C
0011:  MOVLW  7B
0012:  MOVWF  77
0013:  DECFSZ 77,F
0014:  GOTO   013
0015:  DECFSZ 00,F
0016:  GOTO   00A
0017:  RETURN
....................  
....................  
.................... #bit LED1=0X06.1 
.................... #bit TLED1=0X86.1 
.................... #bit LED2=0X06.2 
.................... #bit TLED2=0X86.2 
.................... #bit LED3=0X06.3 
.................... #bit TLED3=0X86.3 
.................... #bit LED4=0X06.4 
.................... #bit TLED4=0X86.4 
.................... #bit LED5=0X06.5 
.................... #bit TLED5=0X86.5 
.................... #bit LED6=0X06.6 
.................... #bit TLED6=0X86.6 
.................... #bit LED7=0X07.0 
.................... #bit TLED7=0X87.0 
.................... #bit LED8=0X07.1 
.................... #bit TLED8=0X87.1 
.................... #bit LED8=0X07.1 
.................... #bit TLED8=0X87.1 
.................... #bit LED9=0X07.2 
.................... #bit TLED9=0X87.2 
.................... #bit LED10=0X07.3 
.................... #bit TLED10=0X87.3 
.................... void main() 
0018:  MOVF   03,W
0019:  ANDLW  1F
001A:  MOVWF  03
001B:  BSF    03.5
001C:  BSF    1F.0
001D:  BSF    1F.1
001E:  BSF    1F.2
001F:  BCF    1F.3
0020:  MOVLW  07
0021:  MOVWF  1C
0022:  BCF    03.7
.................... { 
.................... LED1=0; 
0023:  BCF    03.5
0024:  BCF    06.1
.................... TLED1=0; 
0025:  BSF    03.5
0026:  BCF    06.1
.................... LED2=0; 
0027:  BCF    03.5
0028:  BCF    06.2
.................... TLED2=0; 
0029:  BSF    03.5
002A:  BCF    06.2
.................... LED3=0; 
002B:  BCF    03.5
002C:  BCF    06.3
.................... TLED3=0; 
002D:  BSF    03.5
002E:  BCF    06.3
.................... LED4=0; 
002F:  BCF    03.5
0030:  BCF    06.4
.................... TLED4=0; 
0031:  BSF    03.5
0032:  BCF    06.4
.................... LED5=0; 
0033:  BCF    03.5
0034:  BCF    06.5
.................... TLED5=0; 
0035:  BSF    03.5
0036:  BCF    06.5
.................... LED6=0; 
0037:  BCF    03.5
0038:  BCF    06.6
.................... TLED6=0; 
0039:  BSF    03.5
003A:  BCF    06.6
.................... LED7=0; 
003B:  BCF    03.5
003C:  BCF    07.0
.................... TLED7=0; 
003D:  BSF    03.5
003E:  BCF    07.0
.................... LED8=0; 
003F:  BCF    03.5
0040:  BCF    07.1
.................... TLED8=0; 
0041:  BSF    03.5
0042:  BCF    07.1
.................... LED9=0; 
0043:  BCF    03.5
0044:  BCF    07.2
.................... TLED9=0; 
0045:  BSF    03.5
0046:  BCF    07.2
.................... LED10=0; 
0047:  BCF    03.5
0048:  BCF    07.3
.................... TLED10=0; 
0049:  BSF    03.5
004A:  BCF    07.3
....................  
....................    while(TRUE) 
....................    { 
....................       LED1=1; 
004B:  BCF    03.5
004C:  BSF    06.1
....................       LED2=1; 
004D:  BSF    06.2
....................       LED3=0; 
004E:  BCF    06.3
....................       LED4=0; 
004F:  BCF    06.4
....................       LED5=1; 
0050:  BSF    06.5
....................       LED6=1; 
0051:  BSF    06.6
....................       LED7=0; 
0052:  BCF    07.0
....................       LED8=0; 
0053:  BCF    07.1
....................       LED9=1; 
0054:  BSF    07.2
....................       LED10=1; 
0055:  BSF    07.3
....................       delay_ms(1000); 
0056:  MOVLW  04
0057:  MOVWF  21
0058:  MOVLW  FA
0059:  MOVWF  22
005A:  CALL   004
005B:  DECFSZ 21,F
005C:  GOTO   058
....................       LED1=0; 
005D:  BCF    06.1
....................       LED2=0; 
005E:  BCF    06.2
....................       LED3=1; 
005F:  BSF    06.3
....................       LED4=1; 
0060:  BSF    06.4
....................       LED5=0; 
0061:  BCF    06.5
....................       LED6=0; 
0062:  BCF    06.6
....................       LED7=1; 
0063:  BSF    07.0
....................       LED8=1; 
0064:  BSF    07.1
....................       LED9=0; 
0065:  BCF    07.2
....................       LED10=0; 
0066:  BCF    07.3
....................       delay_ms(1000); 
0067:  MOVLW  04
0068:  MOVWF  21
0069:  MOVLW  FA
006A:  MOVWF  22
006B:  CALL   004
006C:  DECFSZ 21,F
006D:  GOTO   069
006E:  GOTO   04C
....................    } 
....................  
.................... } 
006F:  SLEEP

Configuration Fuses:
   Word  1: 3F32   HS NOWDT PUT NOBROWNOUT NOLVP NOCPD NOWRT NODEBUG NOPROTECT
