CCS PCM C Compiler, Version 5.008, 5967               25-Jun-22 09:42

               Filename:   C:\Users\BOLA SHANKAR\OneDrive\Desktop\Embedded Training\LED\8 LED even odd.lst

               ROM used:   78 words (1%)
                           Largest free fragment is 2048
               RAM used:   6 (2%) at main() level
                           7 (2%) worst case
               Stack used: 1 locations
               Stack size: 8

*
0000:  MOVLW  00
0001:  MOVWF  0A
0002:  GOTO   018
0003:  NOP
.................... #include <8 LED even odd.h> 
.................... #include <16F877A.h> 
.................... //////// Standard Header file for the PIC16F877A device //////////////// 
.................... #device PIC16F877A 
....................  
.................... #list 
....................  
.................... #device ADC=16 
....................  
.................... #FUSES NOWDT                 	//No Watch Dog Timer 
.................... #FUSES NOBROWNOUT            	//No brownout reset 
.................... #FUSES NOLVP                 	//No low voltage prgming, B3(PIC16) or B5(PIC18) used for I/O 
....................  
.................... #use delay(crystal=20MHz) 
0004:  MOVLW  22
0005:  MOVWF  04
0006:  BCF    03.7
0007:  MOVF   00,W
0008:  BTFSC  03.2
0009:  GOTO   017
000A:  MOVLW  06
000B:  MOVWF  78
000C:  CLRF   77
000D:  DECFSZ 77,F
000E:  GOTO   00D
000F:  DECFSZ 78,F
0010:  GOTO   00C
0011:  MOVLW  7B
0012:  MOVWF  77
0013:  DECFSZ 77,F
0014:  GOTO   013
0015:  DECFSZ 00,F
0016:  GOTO   00A
0017:  RETURN
....................  
....................  
.................... #bit LED1=0X06.0 
.................... #bit TLED1=0x86.0 
.................... #bit LED2=0X06.1 
.................... #bit TLED2=0X86.1 
.................... void main() 
0018:  MOVF   03,W
0019:  ANDLW  1F
001A:  MOVWF  03
001B:  BSF    03.5
001C:  BSF    1F.0
001D:  BSF    1F.1
001E:  BSF    1F.2
001F:  BCF    1F.3
0020:  MOVLW  07
0021:  MOVWF  1C
0022:  BCF    03.7
.................... { 
.................... LED1=0; 
0023:  BCF    03.5
0024:  BCF    06.0
.................... TLED1=0; 
0025:  BSF    03.5
0026:  BCF    06.0
.................... LED2=0; 
0027:  BCF    03.5
0028:  BCF    06.1
.................... TLED2=0; 
0029:  BSF    03.5
002A:  BCF    06.1
....................    while(TRUE) 
....................    { 
....................       LED1=1; 
002B:  BCF    03.5
002C:  BSF    06.0
....................       delay_ms(1000); 
002D:  MOVLW  04
002E:  MOVWF  21
002F:  MOVLW  FA
0030:  MOVWF  22
0031:  CALL   004
0032:  DECFSZ 21,F
0033:  GOTO   02F
....................       LED1=0; 
0034:  BCF    06.0
....................       delay_ms(1000); 
0035:  MOVLW  04
0036:  MOVWF  21
0037:  MOVLW  FA
0038:  MOVWF  22
0039:  CALL   004
003A:  DECFSZ 21,F
003B:  GOTO   037
....................       LED2=1; 
003C:  BSF    06.1
....................       delay_ms(1000); 
003D:  MOVLW  04
003E:  MOVWF  21
003F:  MOVLW  FA
0040:  MOVWF  22
0041:  CALL   004
0042:  DECFSZ 21,F
0043:  GOTO   03F
....................       LED2=0; 
0044:  BCF    06.1
....................       delay_ms(1000); 
0045:  MOVLW  04
0046:  MOVWF  21
0047:  MOVLW  FA
0048:  MOVWF  22
0049:  CALL   004
004A:  DECFSZ 21,F
004B:  GOTO   047
004C:  GOTO   02C
....................    } 
....................  
.................... } 
004D:  SLEEP

Configuration Fuses:
   Word  1: 3F32   HS NOWDT PUT NOBROWNOUT NOLVP NOCPD NOWRT NODEBUG NOPROTECT
