CCS PCM C Compiler, Version 5.008, 5967               25-Jun-22 15:35

               Filename:   C:\Users\BOLA SHANKAR\OneDrive\Desktop\Embedded Training\LCD\1 LCD DISPLAY using STRINGS.lst

               ROM used:   121 words (1%)
                           Largest free fragment is 2048
               RAM used:   13 (4%) at main() level
                           20 (5%) worst case
               Stack used: 3 locations
               Stack size: 8

*
0000:  MOVLW  00
0001:  MOVWF  0A
0002:  GOTO   042
0003:  NOP
.................... #include <1 LCD DISPLAY A.h> 
.................... #include <16F877A.h> 
.................... //////// Standard Header file for the PIC16F877A device //////////////// 
.................... #device PIC16F877A 
....................  
.................... #list 
....................  
.................... #device ADC=16 
....................  
.................... #FUSES NOWDT                 	//No Watch Dog Timer 
.................... #FUSES NOBROWNOUT            	//No brownout reset 
.................... #FUSES NOLVP                 	//No low voltage prgming, B3(PIC16) or B5(PIC18) used for I/O 
....................  
.................... #use delay(crystal=20MHz) 
0004:  MOVLW  2E
0005:  MOVWF  04
0006:  BCF    03.7
0007:  MOVF   00,W
0008:  BTFSC  03.2
0009:  GOTO   017
000A:  MOVLW  06
000B:  MOVWF  78
000C:  CLRF   77
000D:  DECFSZ 77,F
000E:  GOTO   00D
000F:  DECFSZ 78,F
0010:  GOTO   00C
0011:  MOVLW  7B
0012:  MOVWF  77
0013:  DECFSZ 77,F
0014:  GOTO   013
0015:  DECFSZ 00,F
0016:  GOTO   00A
0017:  RETURN
....................  
....................  
.................... #byte LCD=0X08 
.................... #byte TLCD=0X88 
.................... #bit RS=0X07.0 
.................... #bit TRS=0X87.0 
.................... #bit EN=0X07.1 
.................... #bit TEN=0X87.1 
.................... char STR[8]="QISCET"; 
*
004D:  MOVLW  51
004E:  BCF    03.5
004F:  MOVWF  20
0050:  MOVLW  49
0051:  MOVWF  21
0052:  MOVLW  53
0053:  MOVWF  22
0054:  MOVLW  43
0055:  MOVWF  23
0056:  MOVLW  45
0057:  MOVWF  24
0058:  MOVLW  54
0059:  MOVWF  25
005A:  CLRF   26
.................... void display(unsigned int A,unsigned int B) 
.................... { 
.................... LCD=A; 
*
0018:  MOVF   2C,W
0019:  MOVWF  08
.................... RS=B; 
001A:  BTFSS  2D.0
001B:  BCF    07.0
001C:  BTFSC  2D.0
001D:  BSF    07.0
.................... EN=1; 
001E:  BSF    07.1
.................... delay_ms(200); 
001F:  MOVLW  C8
0020:  MOVWF  2E
0021:  CALL   004
.................... EN=0; 
0022:  BCF    07.1
0023:  RETURN
....................  
.................... } 
.................... void display_string(char *str) 
.................... { 
.................... for(int i=0;str[i]!=0;i++) 
0024:  CLRF   2A
0025:  MOVF   2A,W
0026:  ADDWF  28,W
0027:  MOVWF  04
0028:  BCF    03.7
0029:  BTFSC  29.0
002A:  BSF    03.7
002B:  MOVF   00,F
002C:  BTFSC  03.2
002D:  GOTO   03F
.................... { 
.................... display(str[i],1); 
002E:  MOVF   2A,W
002F:  ADDWF  28,W
0030:  MOVWF  04
0031:  BCF    03.7
0032:  BTFSC  29.0
0033:  BSF    03.7
0034:  MOVF   00,W
0035:  MOVWF  2B
0036:  MOVWF  2C
0037:  MOVLW  01
0038:  MOVWF  2D
0039:  CALL   018
.................... delay_ms(200); 
003A:  MOVLW  C8
003B:  MOVWF  2E
003C:  CALL   004
003D:  INCF   2A,F
003E:  GOTO   025
.................... } 
003F:  BCF    0A.3
0040:  BCF    0A.4
0041:  GOTO   077 (RETURN)
.................... } 
.................... void main() 
0042:  MOVF   03,W
0043:  ANDLW  1F
0044:  MOVWF  03
0045:  BSF    03.5
0046:  BSF    1F.0
0047:  BSF    1F.1
0048:  BSF    1F.2
0049:  BCF    1F.3
004A:  MOVLW  07
004B:  MOVWF  1C
004C:  BCF    03.7
.................... { 
.................... LCD=0; 
*
005B:  CLRF   08
.................... TLCD=0; 
005C:  BSF    03.5
005D:  CLRF   08
.................... RS=0; 
005E:  BCF    03.5
005F:  BCF    07.0
.................... TRS=0; 
0060:  BSF    03.5
0061:  BCF    07.0
.................... EN=0; 
0062:  BCF    03.5
0063:  BCF    07.1
.................... TEN=0; 
0064:  BSF    03.5
0065:  BCF    07.1
.................... display(0X0C,0); 
0066:  MOVLW  0C
0067:  BCF    03.5
0068:  MOVWF  2C
0069:  CLRF   2D
006A:  CALL   018
.................... display(0X38,0); 
006B:  MOVLW  38
006C:  MOVWF  2C
006D:  CLRF   2D
006E:  CALL   018
....................    while(TRUE) 
....................    { 
....................      display(0X85,0); 
006F:  MOVLW  85
0070:  MOVWF  2C
0071:  CLRF   2D
0072:  CALL   018
....................      display_string(STR); 
0073:  CLRF   29
0074:  MOVLW  20
0075:  MOVWF  28
0076:  GOTO   024
0077:  GOTO   06F
....................    } 
....................  
.................... } 
0078:  SLEEP

Configuration Fuses:
   Word  1: 3F32   HS NOWDT PUT NOBROWNOUT NOLVP NOCPD NOWRT NODEBUG NOPROTECT
