CCS PCM C Compiler, Version 5.008, 5967               25-Jun-22 14:24

               Filename:   C:\Users\BOLA SHANKAR\OneDrive\Desktop\Embedded Training\LCD\1 LCD DISPLAY A.lst

               ROM used:   77 words (1%)
                           Largest free fragment is 2048
               RAM used:   5 (1%) at main() level
                           8 (2%) worst case
               Stack used: 1 locations
               Stack size: 8

*
0000:  MOVLW  00
0001:  MOVWF  0A
0002:  GOTO   022
0003:  NOP
.................... #include <1 LCD DISPLAY A.h> 
.................... #include <16F877A.h> 
.................... //////// Standard Header file for the PIC16F877A device //////////////// 
.................... #device PIC16F877A 
....................  
.................... #list 
....................  
.................... #device ADC=16 
....................  
.................... #FUSES NOWDT                 	//No Watch Dog Timer 
.................... #FUSES NOBROWNOUT            	//No brownout reset 
.................... #FUSES NOLVP                 	//No low voltage prgming, B3(PIC16) or B5(PIC18) used for I/O 
....................  
.................... #use delay(crystal=20MHz) 
*
000D:  MOVLW  23
000E:  MOVWF  04
000F:  BCF    03.7
0010:  MOVF   00,W
0011:  BTFSC  03.2
0012:  GOTO   020
0013:  MOVLW  06
0014:  MOVWF  78
0015:  CLRF   77
0016:  DECFSZ 77,F
0017:  GOTO   016
0018:  DECFSZ 78,F
0019:  GOTO   015
001A:  MOVLW  7B
001B:  MOVWF  77
001C:  DECFSZ 77,F
001D:  GOTO   01C
001E:  DECFSZ 00,F
001F:  GOTO   013
....................  
....................  
.................... #byte LCD=0X08 
.................... #byte TLCD=0X88 
.................... #bit RS=0X07.0 
.................... #bit TRS=0X87.0 
.................... #bit EN=0X07.1 
.................... #bit TEN=0X87.1 
.................... void display(unsigned int A,unsigned int B) 
.................... { 
.................... LCD=A; 
*
0004:  MOVF   21,W
0005:  MOVWF  08
.................... RS=B; 
0006:  BTFSS  22.0
0007:  BCF    07.0
0008:  BTFSC  22.0
0009:  BSF    07.0
.................... EN=1; 
000A:  BSF    07.1
.................... delay_ms(200); 
000B:  MOVLW  C8
000C:  MOVWF  23
.................... EN=0; 
*
0020:  BCF    07.1
0021:  RETURN
.................... } 
.................... void main() 
0022:  MOVF   03,W
0023:  ANDLW  1F
0024:  MOVWF  03
0025:  BSF    03.5
0026:  BSF    1F.0
0027:  BSF    1F.1
0028:  BSF    1F.2
0029:  BCF    1F.3
002A:  MOVLW  07
002B:  MOVWF  1C
002C:  BCF    03.7
.................... { 
.................... LCD=0; 
002D:  BCF    03.5
002E:  CLRF   08
.................... TLCD=0; 
002F:  BSF    03.5
0030:  CLRF   08
.................... RS=0; 
0031:  BCF    03.5
0032:  BCF    07.0
.................... TRS=0; 
0033:  BSF    03.5
0034:  BCF    07.0
.................... EN=0; 
0035:  BCF    03.5
0036:  BCF    07.1
.................... TEN=0; 
0037:  BSF    03.5
0038:  BCF    07.1
.................... display(0X0C,0); 
0039:  MOVLW  0C
003A:  BCF    03.5
003B:  MOVWF  21
003C:  CLRF   22
003D:  CALL   004
.................... display(0X38,0); 
003E:  MOVLW  38
003F:  MOVWF  21
0040:  CLRF   22
0041:  CALL   004
....................    while(TRUE) 
....................    { 
....................      display(0X80,0); 
0042:  MOVLW  80
0043:  MOVWF  21
0044:  CLRF   22
0045:  CALL   004
....................      display('A',1); 
0046:  MOVLW  41
0047:  MOVWF  21
0048:  MOVLW  01
0049:  MOVWF  22
004A:  CALL   004
004B:  GOTO   042
....................    } 
....................  
.................... } 
004C:  SLEEP

Configuration Fuses:
   Word  1: 3F32   HS NOWDT PUT NOBROWNOUT NOLVP NOCPD NOWRT NODEBUG NOPROTECT
